target datalayout = "e-m:e-p270:32:32-p271:32:32-p272:64:64-i64:64-i128:128-f80:128-n8:16:32:64-S128"
target triple = "x86_64-unknown-linux-gnu"

%"class.EA::Thread::AtomicInt" = type { %"struct.std::atomic" }
%"struct.std::atomic" = type { %"struct.std::__atomic_base" }
%"struct.std::__atomic_base" = type { i32 }
%struct.__va_list_tag = type { i32, i32, ptr, ptr }

@.str = private unnamed_addr constant [12 x i8] c"%s(%d): %s\0A\00", align 1
@.str.3 = private unnamed_addr constant [128 x i8] c"generated/home/dtcxzyw/WorkSpace/Projects/compilers/llvm-opt-benchmark/bench/eastl/EASTL/test/packages/EATest/source/EATest.cpp\00", align 1
@_ZN2EA8UnitTest17gGlobalErrorCountE = dso_local global %"class.EA::Thread::AtomicInt" zeroinitializer, align 4

; Function Attrs: mustprogress nounwind uwtable
define linkonce_odr dso_local noundef i32 @_ZN2EA6Thread9AtomicIntIiE3AddEi(ptr noundef nonnull align 4 dereferenceable(4) %this, i32 noundef %n) #1 comdat align 2 {
entry:
  %this.addr.i = alloca ptr, align 8
  %__i.addr.i = alloca i32, align 4
  %__m.addr.i = alloca i32, align 4
  %.atomictmp.i = alloca i32, align 4
  %atomic-temp.i = alloca i32, align 4
  %this.addr = alloca ptr, align 8
  %n.addr = alloca i32, align 4
  store ptr %this, ptr %this.addr, align 8
  store i32 %n, ptr %n.addr, align 4
  %this1 = load ptr, ptr %this.addr, align 8
  %mValue = getelementptr inbounds %"class.EA::Thread::AtomicInt", ptr %this1, i32 0, i32 0
  %0 = load i32, ptr %n.addr, align 4
  store ptr %mValue, ptr %this.addr.i, align 8
  store i32 %0, ptr %__i.addr.i, align 4
  store i32 5, ptr %__m.addr.i, align 4
  %this1.i = load ptr, ptr %this.addr.i, align 8
  %1 = load i32, ptr %__m.addr.i, align 4
  %2 = load i32, ptr %__i.addr.i, align 4
  store i32 %2, ptr %.atomictmp.i, align 4
  switch i32 %1, label %monotonic.i [
    i32 1, label %acquire.i
    i32 2, label %acquire.i
    i32 3, label %release.i
    i32 4, label %acqrel.i
    i32 5, label %seqcst.i
  ]

monotonic.i:                                      ; preds = %entry
  %3 = load i32, ptr %.atomictmp.i, align 4
  %4 = atomicrmw add ptr %this1.i, i32 %3 monotonic, align 4
  store i32 %4, ptr %atomic-temp.i, align 4
  br label %_ZNSt13__atomic_baseIiE9fetch_addEiSt12memory_order.exit

acquire.i:                                        ; preds = %entry, %entry
  %5 = load i32, ptr %.atomictmp.i, align 4
  %6 = atomicrmw add ptr %this1.i, i32 %5 acquire, align 4
  store i32 %6, ptr %atomic-temp.i, align 4
  br label %_ZNSt13__atomic_baseIiE9fetch_addEiSt12memory_order.exit

release.i:                                        ; preds = %entry
  %7 = load i32, ptr %.atomictmp.i, align 4
  %8 = atomicrmw add ptr %this1.i, i32 %7 release, align 4
  store i32 %8, ptr %atomic-temp.i, align 4
  br label %_ZNSt13__atomic_baseIiE9fetch_addEiSt12memory_order.exit

acqrel.i:                                         ; preds = %entry
  %9 = load i32, ptr %.atomictmp.i, align 4
  %10 = atomicrmw add ptr %this1.i, i32 %9 acq_rel, align 4
  store i32 %10, ptr %atomic-temp.i, align 4
  br label %_ZNSt13__atomic_baseIiE9fetch_addEiSt12memory_order.exit

seqcst.i:                                         ; preds = %entry
  %11 = load i32, ptr %.atomictmp.i, align 4
  %12 = atomicrmw add ptr %this1.i, i32 %11 seq_cst, align 4
  store i32 %12, ptr %atomic-temp.i, align 4
  br label %_ZNSt13__atomic_baseIiE9fetch_addEiSt12memory_order.exit

_ZNSt13__atomic_baseIiE9fetch_addEiSt12memory_order.exit: ; preds = %seqcst.i, %acqrel.i, %release.i, %acquire.i, %monotonic.i
  %13 = load i32, ptr %atomic-temp.i, align 4
  %14 = load i32, ptr %n.addr, align 4
  %add = add nsw i32 %13, %14
  ret i32 %add
}

; Function Attrs: mustprogress uwtable
define dso_local noundef i32 @_ZN2EA8UnitTest25IncrementGlobalErrorCountEi(i32 noundef %count) #2 {
entry:
  %count.addr = alloca i32, align 4
  store i32 %count, ptr %count.addr, align 4
  %0 = load i32, ptr %count.addr, align 4
  %call = call noundef i32 @_ZN2EA6Thread9AtomicIntIiE3AddEi(ptr noundef nonnull align 4 dereferenceable(4) @_ZN2EA8UnitTest17gGlobalErrorCountE, i32 noundef %0)
  ret i32 %call
}

; Function Attrs: mustprogress uwtable
define dso_local noundef i32 @_ZN2EA8UnitTest12TestInternal17EATEST_VERIFY_IMPEbRiPKciS4_(i1 noundef zeroext %bExpression, ptr noundef nonnull align 4 dereferenceable(4) %nErrorCount, ptr noundef %pFile, i32 noundef %nLine, ptr noundef %pMessage) #2 {
entry:
  %bExpression.addr = alloca i8, align 1
  %nErrorCount.addr = alloca ptr, align 8
  %pFile.addr = alloca ptr, align 8
  %nLine.addr = alloca i32, align 4
  %pMessage.addr = alloca ptr, align 8
  %frombool = zext i1 %bExpression to i8
  store i8 %frombool, ptr %bExpression.addr, align 1
  store ptr %nErrorCount, ptr %nErrorCount.addr, align 8
  store ptr %pFile, ptr %pFile.addr, align 8
  store i32 %nLine, ptr %nLine.addr, align 4
  store ptr %pMessage, ptr %pMessage.addr, align 8
  %0 = load i8, ptr %bExpression.addr, align 1
  %tobool = trunc i8 %0 to i1
  br i1 %tobool, label %if.end, label %if.then

if.then:                                          ; preds = %entry
  %1 = load ptr, ptr %nErrorCount.addr, align 8
  %2 = load i32, ptr %1, align 4
  %inc = add nsw i32 %2, 1
  store i32 %inc, ptr %1, align 4
  %3 = load ptr, ptr %pFile.addr, align 8
  %4 = load i32, ptr %nLine.addr, align 4
  %5 = load ptr, ptr %pMessage.addr, align 8
  call void (ptr, ...) @_ZN2EA6EAMain6ReportEPKcz(ptr noundef @.str, ptr noundef %3, i32 noundef %4, ptr noundef %5)
  br label %if.end

if.end:                                           ; preds = %if.then, %entry
  %6 = load i8, ptr %bExpression.addr, align 1
  %tobool1 = trunc i8 %6 to i1
  %cond = select i1 %tobool1, i32 0, i32 1
  ret i32 %cond
}

; Function Attrs: mustprogress uwtable
define dso_local noundef i32 @_ZN2EA8UnitTest12TestInternal21EATEST_VERIFY_F_IMP_GEbPKcz(i1 noundef zeroext %bExpression, ptr noundef %pFormat, ...) #2 {
entry:
  %bExpression.addr = alloca i8, align 1
  %pFormat.addr = alloca ptr, align 8
  %nErrorCount = alloca i32, align 4
  %kBufferSize = alloca i32, align 4
  %buffer = alloca [2048 x i8], align 16
  %arguments = alloca [1 x %struct.__va_list_tag], align 16
  %argumentsSaved = alloca [1 x %struct.__va_list_tag], align 16
  %nReturnValue = alloca i32, align 4
  %nExpectedLen = alloca i64, align 8
  %pBuffer = alloca ptr, align 8
  %frombool = zext i1 %bExpression to i8
  store i8 %frombool, ptr %bExpression.addr, align 1
  store ptr %pFormat, ptr %pFormat.addr, align 8
  store i32 0, ptr %nErrorCount, align 4
  %0 = load i8, ptr %bExpression.addr, align 1
  %tobool = trunc i8 %0 to i1
  br i1 %tobool, label %if.end30, label %if.then

if.then:                                          ; preds = %entry
  store i32 2048, ptr %kBufferSize, align 4
  %arraydecay = getelementptr inbounds [1 x %struct.__va_list_tag], ptr %arguments, i64 0, i64 0
  call void @llvm.va_start(ptr %arraydecay)
  %arraydecay1 = getelementptr inbounds [1 x %struct.__va_list_tag], ptr %argumentsSaved, i64 0, i64 0
  %arraydecay2 = getelementptr inbounds [1 x %struct.__va_list_tag], ptr %arguments, i64 0, i64 0
  call void @llvm.va_copy(ptr %arraydecay1, ptr %arraydecay2)
  %arraydecay3 = getelementptr inbounds [2048 x i8], ptr %buffer, i64 0, i64 0
  %1 = load ptr, ptr %pFormat.addr, align 8
  %arraydecay4 = getelementptr inbounds [1 x %struct.__va_list_tag], ptr %arguments, i64 0, i64 0
  %call = call noundef i32 @_ZN2EA4StdC9VsnprintfEPcmPKcP13__va_list_tag(ptr noundef %arraydecay3, i64 noundef 2048, ptr noundef %1, ptr noundef %arraydecay4)
  store i32 %call, ptr %nReturnValue, align 4
  %2 = load i32, ptr %nReturnValue, align 4
  %cmp = icmp sge i32 %2, 0
  br i1 %cmp, label %if.then5, label %if.else

if.then5:                                         ; preds = %if.then
  %3 = load i8, ptr %bExpression.addr, align 1
  %tobool6 = trunc i8 %3 to i1
  %arraydecay7 = getelementptr inbounds [2048 x i8], ptr %buffer, i64 0, i64 0
  %call8 = call noundef i32 @_ZN2EA8UnitTest12TestInternal17EATEST_VERIFY_IMPEbRiPKciS4_(i1 noundef zeroext %tobool6, ptr noundef nonnull align 4 dereferenceable(4) %nErrorCount, ptr noundef @.str.3, i32 noundef 183, ptr noundef %arraydecay7)
  br label %if.end26

if.else:                                          ; preds = %if.then
  %arraydecay9 = getelementptr inbounds [2048 x i8], ptr %buffer, i64 0, i64 0
  %4 = load ptr, ptr %pFormat.addr, align 8
  %arraydecay10 = getelementptr inbounds [1 x %struct.__va_list_tag], ptr %arguments, i64 0, i64 0
  %call11 = call noundef i32 @_ZN2EA4StdC9VsnprintfEPcmPKcP13__va_list_tag(ptr noundef %arraydecay9, i64 noundef 0, ptr noundef %4, ptr noundef %arraydecay10)
  %conv = sext i32 %call11 to i64
  store i64 %conv, ptr %nExpectedLen, align 8
  %5 = load i64, ptr %nExpectedLen, align 8
  %add = add i64 %5, 1
  %call12 = call noalias noundef nonnull ptr @_Znam(i64 noundef %add) #14
  store ptr %call12, ptr %pBuffer, align 8
  %6 = load ptr, ptr %pBuffer, align 8
  %tobool13 = icmp ne ptr %6, null
  br i1 %tobool13, label %if.then14, label %if.else23

if.then14:                                        ; preds = %if.else
  %arraydecay15 = getelementptr inbounds [1 x %struct.__va_list_tag], ptr %arguments, i64 0, i64 0
  call void @llvm.va_end(ptr %arraydecay15)
  %arraydecay16 = getelementptr inbounds [1 x %struct.__va_list_tag], ptr %arguments, i64 0, i64 0
  %arraydecay17 = getelementptr inbounds [1 x %struct.__va_list_tag], ptr %argumentsSaved, i64 0, i64 0
  call void @llvm.va_copy(ptr %arraydecay16, ptr %arraydecay17)
  %7 = load ptr, ptr %pBuffer, align 8
  %8 = load i64, ptr %nExpectedLen, align 8
  %add18 = add i64 %8, 1
  %9 = load ptr, ptr %pFormat.addr, align 8
  %arraydecay19 = getelementptr inbounds [1 x %struct.__va_list_tag], ptr %arguments, i64 0, i64 0
  %call20 = call noundef i32 @_ZN2EA4StdC9VsnprintfEPcmPKcP13__va_list_tag(ptr noundef %7, i64 noundef %add18, ptr noundef %9, ptr noundef %arraydecay19)
  %10 = load i8, ptr %bExpression.addr, align 1
  %tobool21 = trunc i8 %10 to i1
  %11 = load ptr, ptr %pBuffer, align 8
  %call22 = call noundef i32 @_ZN2EA8UnitTest12TestInternal17EATEST_VERIFY_IMPEbRiPKciS4_(i1 noundef zeroext %tobool21, ptr noundef nonnull align 4 dereferenceable(4) %nErrorCount, ptr noundef @.str.3, i32 noundef 196, ptr noundef %11)
  %12 = load ptr, ptr %pBuffer, align 8
  %isnull = icmp eq ptr %12, null
  br i1 %isnull, label %delete.end, label %delete.notnull

delete.notnull:                                   ; preds = %if.then14
  call void @_ZdaPv(ptr noundef %12) #15
  br label %delete.end

delete.end:                                       ; preds = %delete.notnull, %if.then14
  br label %if.end

if.else23:                                        ; preds = %if.else
  %13 = load i8, ptr %bExpression.addr, align 1
  %tobool24 = trunc i8 %13 to i1
  %14 = load ptr, ptr %pFormat.addr, align 8
  %call25 = call noundef i32 @_ZN2EA8UnitTest12TestInternal17EATEST_VERIFY_IMPEbRiPKciS4_(i1 noundef zeroext %tobool24, ptr noundef nonnull align 4 dereferenceable(4) %nErrorCount, ptr noundef @.str.3, i32 noundef 200, ptr noundef %14)
  br label %if.end

if.end:                                           ; preds = %if.else23, %delete.end
  br label %if.end26

if.end26:                                         ; preds = %if.end, %if.then5
  %15 = load i32, ptr %nErrorCount, align 4
  %call27 = call noundef i32 @_ZN2EA8UnitTest25IncrementGlobalErrorCountEi(i32 noundef %15)
  %arraydecay28 = getelementptr inbounds [1 x %struct.__va_list_tag], ptr %arguments, i64 0, i64 0
  call void @llvm.va_end(ptr %arraydecay28)
  %arraydecay29 = getelementptr inbounds [1 x %struct.__va_list_tag], ptr %argumentsSaved, i64 0, i64 0
  call void @llvm.va_end(ptr %arraydecay29)
  br label %if.end30

if.end30:                                         ; preds = %if.end26, %entry
  %16 = load i32, ptr %nErrorCount, align 4
  ret i32 %16
}