; Function Attrs: mustprogress uwtable
define dso_local noundef i32 @_ZN2EA8UnitTest12TestInternal21EATEST_VERIFY_F_IMP_GEbPKcz(i1 noundef zeroext %bExpression, ptr noundef %pFormat, ...) local_unnamed_addr #0 {
entry:
  %buffer = alloca [2048 x i8], align 16
  %arguments = alloca [1 x %struct.__va_list_tag], align 16
  %argumentsSaved = alloca [1 x %struct.__va_list_tag], align 16
  br i1 %bExpression, label %if.end30, label %if.then

if.then:                                          ; preds = %entry
  call void @llvm.va_start(ptr nonnull %arguments)
  call void @llvm.va_copy(ptr nonnull %argumentsSaved, ptr nonnull %arguments)
  %call = call noundef i32 @_ZN2EA4StdC9VsnprintfEPcmPKcP13__va_list_tag(ptr noundef nonnull %buffer, i64 noundef 2048, ptr noundef %pFormat, ptr noundef nonnull %arguments)
  %cmp = icmp sgt i32 %call, -1
  br i1 %cmp, label %if.then5, label %if.else

if.then5:                                         ; preds = %if.then
  call void (ptr, ...) @_ZN2EA6EAMain6ReportEPKcz(ptr noundef nonnull @.str, ptr noundef nonnull @.str.3, i32 noundef 183, ptr noundef nonnull %buffer)
  br label %if.end26

if.else:                                          ; preds = %if.then
  %call11 = call noundef i32 @_ZN2EA4StdC9VsnprintfEPcmPKcP13__va_list_tag(ptr noundef nonnull %buffer, i64 noundef 0, ptr noundef %pFormat, ptr noundef nonnull %arguments)
  %conv = sext i32 %call11 to i64
  %add = add nsw i64 %conv, 1
  %call12 = call noalias noundef nonnull ptr @_Znam(i64 noundef %add) #30
  call void @llvm.va_end(ptr nonnull %arguments)
  call void @llvm.va_copy(ptr nonnull %arguments, ptr nonnull %argumentsSaved)
  %call20 = call noundef i32 @_ZN2EA4StdC9VsnprintfEPcmPKcP13__va_list_tag(ptr noundef nonnull %call12, i64 noundef %add, ptr noundef %pFormat, ptr noundef nonnull %arguments)
  call void (ptr, ...) @_ZN2EA6EAMain6ReportEPKcz(ptr noundef nonnull @.str, ptr noundef nonnull @.str.3, i32 noundef 196, ptr noundef nonnull %call12)
  call void @_ZdaPv(ptr noundef nonnull %call12) #31
  br label %if.end26

if.end26:                                         ; preds = %if.else, %if.then5
  %0 = atomicrmw add ptr @_ZN2EA8UnitTest17gGlobalErrorCountE, i32 1 seq_cst, align 4
  call void @llvm.va_end(ptr nonnull %arguments)
  call void @llvm.va_end(ptr nonnull %argumentsSaved)
  br label %if.end30

if.end30:                                         ; preds = %if.end26, %entry
  %nErrorCount.1 = phi i32 [ 0, %entry ], [ 1, %if.end26 ]
  ret i32 %nErrorCount.1
}